target datalayout = "e-m:e-p270:32:32-p271:32:32-p272:64:64-i64:64-i128:128-f80:128-n8:16:32:64-S128"
target triple = "x86_64-pc-linux-gnu"

%struct.token = type { %union.anon, i32, i32 }
%union.anon = type { ptr }
%struct.scanner = type { %struct.text_buffer, ptr, i64, ptr, i64, i64, i64, i32, i32 }
%struct.text_buffer = type { ptr, i64, i64 }

@.str.40 = private unnamed_addr constant [119 x i8] c"generated/home/dtcxzyw/WorkSpace/Projects/compilers/llvm-opt-benchmark/bench/clamav/clamav/libclamav/jsparse/js-norm.c\00", align 1
@.str.42 = private unnamed_addr constant [1 x i8] zeroinitializer, align 1
@.str.141 = private unnamed_addr constant [18 x i8] c"lvalp->val.string\00", align 1
@__PRETTY_FUNCTION__.parseString = private unnamed_addr constant [71 x i8] c"int parseString(yystype *, yyscan_t, const char, enum tokenizer_state)\00", align 1

; Function Attrs: inlinehint nounwind uwtable
define internal i32 @textbuffer_ensure_capacity(ptr noundef %0, i64 noundef %1) #5 {
  %3 = alloca i32, align 4
  %4 = alloca ptr, align 8
  %5 = alloca i64, align 8
  %6 = alloca ptr, align 8
  %7 = alloca i32, align 4
  %8 = alloca i32, align 4
  store ptr %0, ptr %4, align 8, !tbaa !91
  store i64 %1, ptr %5, align 8, !tbaa !10
  %9 = load ptr, ptr %4, align 8, !tbaa !91
  %10 = getelementptr inbounds nuw %struct.text_buffer, ptr %9, i32 0, i32 1
  %11 = load i64, ptr %10, align 8, !tbaa !94
  %12 = load i64, ptr %5, align 8, !tbaa !10
  %13 = add i64 %11, %12
  %14 = load ptr, ptr %4, align 8, !tbaa !91
  %15 = getelementptr inbounds nuw %struct.text_buffer, ptr %14, i32 0, i32 2
  %16 = load i64, ptr %15, align 8, !tbaa !95
  %17 = icmp ugt i64 %13, %16
  br i1 %17, label %18, label %63

18:                                               ; preds = %2
  call void @llvm.lifetime.start.p0(i64 8, ptr %6) #13
  call void @llvm.lifetime.start.p0(i64 4, ptr %7) #13
  %19 = load ptr, ptr %4, align 8, !tbaa !91
  %20 = getelementptr inbounds nuw %struct.text_buffer, ptr %19, i32 0, i32 1
  %21 = load i64, ptr %20, align 8, !tbaa !94
  %22 = load i64, ptr %5, align 8, !tbaa !10
  %23 = add i64 %21, %22
  %24 = load ptr, ptr %4, align 8, !tbaa !91
  %25 = getelementptr inbounds nuw %struct.text_buffer, ptr %24, i32 0, i32 2
  %26 = load i64, ptr %25, align 8, !tbaa !95
  %27 = add i64 %26, 4096
  %28 = icmp ugt i64 %23, %27
  br i1 %28, label %29, label %35

29:                                               ; preds = %18
  %30 = load ptr, ptr %4, align 8, !tbaa !91
  %31 = getelementptr inbounds nuw %struct.text_buffer, ptr %30, i32 0, i32 1
  %32 = load i64, ptr %31, align 8, !tbaa !94
  %33 = load i64, ptr %5, align 8, !tbaa !10
  %34 = add i64 %32, %33
  br label %40

35:                                               ; preds = %18
  %36 = load ptr, ptr %4, align 8, !tbaa !91
  %37 = getelementptr inbounds nuw %struct.text_buffer, ptr %36, i32 0, i32 2
  %38 = load i64, ptr %37, align 8, !tbaa !95
  %39 = add i64 %38, 4096
  br label %40

40:                                               ; preds = %35, %29
  %41 = phi i64 [ %34, %29 ], [ %39, %35 ]
  %42 = trunc i64 %41 to i32
  store i32 %42, ptr %7, align 4, !tbaa !33
  %43 = load ptr, ptr %4, align 8, !tbaa !91
  %44 = getelementptr inbounds nuw %struct.text_buffer, ptr %43, i32 0, i32 0
  %45 = load ptr, ptr %44, align 8, !tbaa !93
  %46 = load i32, ptr %7, align 4, !tbaa !33
  %47 = zext i32 %46 to i64
  %48 = call ptr @cli_max_realloc(ptr noundef %45, i64 noundef %47)
  store ptr %48, ptr %6, align 8, !tbaa !29
  %49 = load ptr, ptr %6, align 8, !tbaa !29
  %50 = icmp ne ptr %49, null
  br i1 %50, label %52, label %51

51:                                               ; preds = %40
  store i32 -1, ptr %3, align 4
  store i32 1, ptr %8, align 4
  br label %60

52:                                               ; preds = %40
  %53 = load i32, ptr %7, align 4, !tbaa !33
  %54 = zext i32 %53 to i64
  %55 = load ptr, ptr %4, align 8, !tbaa !91
  %56 = getelementptr inbounds nuw %struct.text_buffer, ptr %55, i32 0, i32 2
  store i64 %54, ptr %56, align 8, !tbaa !95
  %57 = load ptr, ptr %6, align 8, !tbaa !29
  %58 = load ptr, ptr %4, align 8, !tbaa !91
  %59 = getelementptr inbounds nuw %struct.text_buffer, ptr %58, i32 0, i32 0
  store ptr %57, ptr %59, align 8, !tbaa !93
  store i32 0, ptr %8, align 4
  br label %60

60:                                               ; preds = %52, %51
  call void @llvm.lifetime.end.p0(i64 4, ptr %7) #13
  call void @llvm.lifetime.end.p0(i64 8, ptr %6) #13
  %61 = load i32, ptr %8, align 4
  switch i32 %61, label %66 [
    i32 0, label %62
    i32 1, label %64
  ]

62:                                               ; preds = %60
  br label %63

63:                                               ; preds = %62, %2
  store i32 0, ptr %3, align 4
  br label %64

64:                                               ; preds = %63, %60
  %65 = load i32, ptr %3, align 4
  ret i32 %65

66:                                               ; preds = %60
  unreachable
}

; Function Attrs: inlinehint nounwind uwtable
define internal ptr @textbuffer_done(ptr noundef %0) #5 {
  %2 = alloca ptr, align 8
  %3 = alloca ptr, align 8
  store ptr %0, ptr %2, align 8, !tbaa !54
  call void @llvm.lifetime.start.p0(i64 8, ptr %3) #13
  %4 = load ptr, ptr %2, align 8, !tbaa !54
  %5 = getelementptr inbounds nuw %struct.scanner, ptr %4, i32 0, i32 0
  %6 = getelementptr inbounds nuw %struct.text_buffer, ptr %5, i32 0, i32 0
  %7 = load ptr, ptr %6, align 8, !tbaa !55
  %8 = load ptr, ptr %2, align 8, !tbaa !54
  %9 = getelementptr inbounds nuw %struct.scanner, ptr %8, i32 0, i32 0
  %10 = getelementptr inbounds nuw %struct.text_buffer, ptr %9, i32 0, i32 1
  %11 = load i64, ptr %10, align 8, !tbaa !76
  %12 = call ptr @cli_max_realloc(ptr noundef %7, i64 noundef %11)
  store ptr %12, ptr %3, align 8, !tbaa !29
  %13 = load ptr, ptr %3, align 8, !tbaa !29
  %14 = icmp ne ptr %13, null
  br i1 %14, label %20, label %15

15:                                               ; preds = %1
  %16 = load ptr, ptr %2, align 8, !tbaa !54
  %17 = getelementptr inbounds nuw %struct.scanner, ptr %16, i32 0, i32 0
  %18 = getelementptr inbounds nuw %struct.text_buffer, ptr %17, i32 0, i32 0
  %19 = load ptr, ptr %18, align 8, !tbaa !55
  store ptr %19, ptr %3, align 8, !tbaa !29
  br label %20

20:                                               ; preds = %15, %1
  %21 = load ptr, ptr %3, align 8, !tbaa !29
  %22 = load ptr, ptr %2, align 8, !tbaa !54
  %23 = getelementptr inbounds nuw %struct.scanner, ptr %22, i32 0, i32 1
  store ptr %21, ptr %23, align 8, !tbaa !74
  %24 = load ptr, ptr %2, align 8, !tbaa !54
  %25 = getelementptr inbounds nuw %struct.scanner, ptr %24, i32 0, i32 0
  %26 = getelementptr inbounds nuw %struct.text_buffer, ptr %25, i32 0, i32 1
  %27 = load i64, ptr %26, align 8, !tbaa !76
  %28 = sub i64 %27, 1
  %29 = load ptr, ptr %2, align 8, !tbaa !54
  %30 = getelementptr inbounds nuw %struct.scanner, ptr %29, i32 0, i32 2
  store i64 %28, ptr %30, align 8, !tbaa !75
  %31 = load ptr, ptr %2, align 8, !tbaa !54
  %32 = getelementptr inbounds nuw %struct.scanner, ptr %31, i32 0, i32 0
  call void @llvm.memset.p0.i64(ptr align 8 %32, i8 0, i64 24, i1 false)
  %33 = load ptr, ptr %3, align 8, !tbaa !29
  call void @llvm.lifetime.end.p0(i64 8, ptr %3) #13
  ret ptr %33
}

; Function Attrs: inlinehint nounwind uwtable
define internal i32 @textbuffer_putc(ptr noundef %0, i8 noundef signext %1) #5 {
  %3 = alloca i32, align 4
  %4 = alloca ptr, align 8
  %5 = alloca i8, align 1
  store ptr %0, ptr %4, align 8, !tbaa !91
  store i8 %1, ptr %5, align 1, !tbaa !12
  %6 = load ptr, ptr %4, align 8, !tbaa !91
  %7 = call i32 @textbuffer_ensure_capacity(ptr noundef %6, i64 noundef 1)
  %8 = icmp eq i32 %7, -1
  br i1 %8, label %9, label %10

9:                                                ; preds = %2
  store i32 -1, ptr %3, align 4
  br label %20

10:                                               ; preds = %2
  %11 = load i8, ptr %5, align 1, !tbaa !12
  %12 = load ptr, ptr %4, align 8, !tbaa !91
  %13 = getelementptr inbounds nuw %struct.text_buffer, ptr %12, i32 0, i32 0
  %14 = load ptr, ptr %13, align 8, !tbaa !93
  %15 = load ptr, ptr %4, align 8, !tbaa !91
  %16 = getelementptr inbounds nuw %struct.text_buffer, ptr %15, i32 0, i32 1
  %17 = load i64, ptr %16, align 8, !tbaa !94
  %18 = add i64 %17, 1
  store i64 %18, ptr %16, align 8, !tbaa !94
  %19 = getelementptr inbounds nuw i8, ptr %14, i64 %17
  store i8 %11, ptr %19, align 1, !tbaa !12
  store i32 0, ptr %3, align 4
  br label %20

20:                                               ; preds = %10, %9
  %21 = load i32, ptr %3, align 4
  ret i32 %21
}

; Function Attrs: inlinehint nounwind uwtable
define internal i32 @parseString(ptr noundef %0, ptr noundef %1, i8 noundef signext %2, i32 noundef %3) #5 {
  %5 = alloca i32, align 4
  %6 = alloca ptr, align 8
  %7 = alloca ptr, align 8
  %8 = alloca i8, align 1
  %9 = alloca i32, align 4
  %10 = alloca i64, align 8
  %11 = alloca ptr, align 8
  %12 = alloca ptr, align 8
  %13 = alloca i64, align 8
  %14 = alloca i32, align 4
  %15 = alloca ptr, align 8
  store ptr %0, ptr %6, align 8, !tbaa !45
  store ptr %1, ptr %7, align 8, !tbaa !54
  store i8 %2, ptr %8, align 1, !tbaa !12
  store i32 %3, ptr %9, align 4, !tbaa !33
  call void @llvm.lifetime.start.p0(i64 8, ptr %10) #13
  call void @llvm.lifetime.start.p0(i64 8, ptr %11) #13
  %16 = load ptr, ptr %7, align 8, !tbaa !54
  %17 = getelementptr inbounds nuw %struct.scanner, ptr %16, i32 0, i32 3
  %18 = load ptr, ptr %17, align 8, !tbaa !69
  %19 = load ptr, ptr %7, align 8, !tbaa !54
  %20 = getelementptr inbounds nuw %struct.scanner, ptr %19, i32 0, i32 5
  %21 = load i64, ptr %20, align 8, !tbaa !71
  %22 = getelementptr inbounds nuw i8, ptr %18, i64 %21
  store ptr %22, ptr %11, align 8, !tbaa !29
  call void @llvm.lifetime.start.p0(i64 8, ptr %12) #13
  %23 = load ptr, ptr %11, align 8, !tbaa !29
  store ptr %23, ptr %12, align 8, !tbaa !29
  br label %24

24:                                               ; preds = %59, %4
  call void @llvm.lifetime.start.p0(i64 8, ptr %13) #13
  %25 = load ptr, ptr %7, align 8, !tbaa !54
  %26 = getelementptr inbounds nuw %struct.scanner, ptr %25, i32 0, i32 3
  %27 = load ptr, ptr %26, align 8, !tbaa !69
  %28 = load ptr, ptr %7, align 8, !tbaa !54
  %29 = getelementptr inbounds nuw %struct.scanner, ptr %28, i32 0, i32 4
  %30 = load i64, ptr %29, align 8, !tbaa !70
  %31 = getelementptr inbounds nuw i8, ptr %27, i64 %30
  %32 = load ptr, ptr %12, align 8, !tbaa !29
  %33 = ptrtoint ptr %31 to i64
  %34 = ptrtoint ptr %32 to i64
  %35 = sub i64 %33, %34
  store i64 %35, ptr %13, align 8, !tbaa !10
  %36 = load ptr, ptr %12, align 8, !tbaa !29
  %37 = load i8, ptr %8, align 1, !tbaa !12
  %38 = sext i8 %37 to i32
  %39 = load i64, ptr %13, align 8, !tbaa !10
  %40 = call ptr @memchr(ptr noundef %36, i32 noundef %38, i64 noundef %39) #14
  store ptr %40, ptr %12, align 8, !tbaa !29
  %41 = load ptr, ptr %12, align 8, !tbaa !29
  %42 = icmp ne ptr %41, null
  br i1 %42, label %43, label %56

43:                                               ; preds = %24
  %44 = load ptr, ptr %12, align 8, !tbaa !29
  %45 = load ptr, ptr %11, align 8, !tbaa !29
  %46 = icmp ugt ptr %44, %45
  br i1 %46, label %47, label %56

47:                                               ; preds = %43
  %48 = load ptr, ptr %12, align 8, !tbaa !29
  %49 = getelementptr inbounds i8, ptr %48, i64 -1
  %50 = load i8, ptr %49, align 1, !tbaa !12
  %51 = sext i8 %50 to i32
  %52 = icmp eq i32 %51, 92
  br i1 %52, label %53, label %56

53:                                               ; preds = %47
  %54 = load ptr, ptr %12, align 8, !tbaa !29
  %55 = getelementptr inbounds nuw i8, ptr %54, i32 1
  store ptr %55, ptr %12, align 8, !tbaa !29
  store i32 3, ptr %14, align 4
  br label %57

56:                                               ; preds = %47, %43, %24
  store i32 2, ptr %14, align 4
  br label %57

57:                                               ; preds = %56, %53
  call void @llvm.lifetime.end.p0(i64 8, ptr %13) #13
  %58 = load i32, ptr %14, align 4
  switch i32 %58, label %141 [
    i32 3, label %59
    i32 2, label %60
  ]

59:                                               ; preds = %57
  br i1 true, label %24, label %60

60:                                               ; preds = %59, %57
  %61 = load ptr, ptr %12, align 8, !tbaa !29
  %62 = icmp ne ptr %61, null
  br i1 %62, label %63, label %73

63:                                               ; preds = %60
  %64 = load ptr, ptr %12, align 8, !tbaa !29
  %65 = load ptr, ptr %11, align 8, !tbaa !29
  %66 = icmp uge ptr %64, %65
  br i1 %66, label %67, label %73

67:                                               ; preds = %63
  %68 = load ptr, ptr %12, align 8, !tbaa !29
  %69 = load ptr, ptr %11, align 8, !tbaa !29
  %70 = ptrtoint ptr %68 to i64
  %71 = ptrtoint ptr %69 to i64
  %72 = sub i64 %70, %71
  store i64 %72, ptr %10, align 8, !tbaa !10
  br label %81

73:                                               ; preds = %63, %60
  %74 = load ptr, ptr %7, align 8, !tbaa !54
  %75 = getelementptr inbounds nuw %struct.scanner, ptr %74, i32 0, i32 4
  %76 = load i64, ptr %75, align 8, !tbaa !70
  %77 = load ptr, ptr %7, align 8, !tbaa !54
  %78 = getelementptr inbounds nuw %struct.scanner, ptr %77, i32 0, i32 5
  %79 = load i64, ptr %78, align 8, !tbaa !71
  %80 = sub i64 %76, %79
  store i64 %80, ptr %10, align 8, !tbaa !10
  br label %81

81:                                               ; preds = %73, %67
  %82 = load ptr, ptr %7, align 8, !tbaa !54
  %83 = getelementptr inbounds nuw %struct.scanner, ptr %82, i32 0, i32 0
  %84 = load ptr, ptr %11, align 8, !tbaa !29
  %85 = load i64, ptr %10, align 8, !tbaa !10
  %86 = call i32 @cli_textbuffer_append_normalize(ptr noundef %83, ptr noundef %84, i64 noundef %85)
  %87 = load ptr, ptr %12, align 8, !tbaa !29
  %88 = icmp ne ptr %87, null
  br i1 %88, label %89, label %130

89:                                               ; preds = %81
  call void @llvm.lifetime.start.p0(i64 8, ptr %15) #13
  %90 = load i64, ptr %10, align 8, !tbaa !10
  %91 = add i64 %90, 1
  %92 = load ptr, ptr %7, align 8, !tbaa !54
  %93 = getelementptr inbounds nuw %struct.scanner, ptr %92, i32 0, i32 5
  %94 = load i64, ptr %93, align 8, !tbaa !71
  %95 = add i64 %94, %91
  store i64 %95, ptr %93, align 8, !tbaa !71
  %96 = load ptr, ptr %7, align 8, !tbaa !54
  %97 = getelementptr inbounds nuw %struct.scanner, ptr %96, i32 0, i32 0
  %98 = call i32 @textbuffer_putc(ptr noundef %97, i8 noundef signext 0)
  %99 = load ptr, ptr %7, align 8, !tbaa !54
  %100 = call ptr @textbuffer_done(ptr noundef %99)
  store ptr %100, ptr %15, align 8, !tbaa !29
  %101 = load ptr, ptr %15, align 8, !tbaa !29
  %102 = icmp ne ptr %101, null
  br i1 %102, label %103, label %112

103:                                              ; preds = %89
  br label %104

104:                                              ; preds = %103
  %105 = load ptr, ptr %6, align 8, !tbaa !45
  %106 = getelementptr inbounds nuw %struct.token, ptr %105, i32 0, i32 2
  store i32 2, ptr %106, align 4, !tbaa !28
  %107 = load ptr, ptr %15, align 8, !tbaa !29
  %108 = load ptr, ptr %6, align 8, !tbaa !45
  %109 = getelementptr inbounds nuw %struct.token, ptr %108, i32 0, i32 0
  store ptr %107, ptr %109, align 8, !tbaa !12
  br label %110

110:                                              ; preds = %104
  br label %111

111:                                              ; preds = %110
  br label %120

112:                                              ; preds = %89
  br label %113

113:                                              ; preds = %112
  %114 = load ptr, ptr %6, align 8, !tbaa !45
  %115 = getelementptr inbounds nuw %struct.token, ptr %114, i32 0, i32 2
  store i32 1, ptr %115, align 4, !tbaa !28
  %116 = load ptr, ptr %6, align 8, !tbaa !45
  %117 = getelementptr inbounds nuw %struct.token, ptr %116, i32 0, i32 0
  store ptr @.str.42, ptr %117, align 8, !tbaa !12
  br label %118

118:                                              ; preds = %113
  br label %119

119:                                              ; preds = %118
  br label %120

120:                                              ; preds = %119, %111
  %121 = load ptr, ptr %7, align 8, !tbaa !54
  %122 = getelementptr inbounds nuw %struct.scanner, ptr %121, i32 0, i32 7
  store i32 0, ptr %122, align 8, !tbaa !20
  %123 = load ptr, ptr %6, align 8, !tbaa !45
  %124 = getelementptr inbounds nuw %struct.token, ptr %123, i32 0, i32 0
  %125 = load ptr, ptr %124, align 8, !tbaa !12
  %126 = icmp ne ptr %125, null
  br i1 %126, label %127, label %128

127:                                              ; preds = %120
  br label %129

128:                                              ; preds = %120
  call void @__assert_fail(ptr noundef @.str.141, ptr noundef @.str.40, i32 noundef 1596, ptr noundef @__PRETTY_FUNCTION__.parseString) #15
  unreachable

129:                                              ; preds = %127
  store i32 20, ptr %5, align 4
  store i32 1, ptr %14, align 4
  call void @llvm.lifetime.end.p0(i64 8, ptr %15) #13
  br label %139

130:                                              ; preds = %81
  %131 = load i64, ptr %10, align 8, !tbaa !10
  %132 = load ptr, ptr %7, align 8, !tbaa !54
  %133 = getelementptr inbounds nuw %struct.scanner, ptr %132, i32 0, i32 5
  %134 = load i64, ptr %133, align 8, !tbaa !71
  %135 = add i64 %134, %131
  store i64 %135, ptr %133, align 8, !tbaa !71
  %136 = load i32, ptr %9, align 4, !tbaa !33
  %137 = load ptr, ptr %7, align 8, !tbaa !54
  %138 = getelementptr inbounds nuw %struct.scanner, ptr %137, i32 0, i32 7
  store i32 %136, ptr %138, align 8, !tbaa !20
  store i32 0, ptr %5, align 4
  store i32 1, ptr %14, align 4
  br label %139

139:                                              ; preds = %130, %129
  call void @llvm.lifetime.end.p0(i64 8, ptr %12) #13
  call void @llvm.lifetime.end.p0(i64 8, ptr %11) #13
  call void @llvm.lifetime.end.p0(i64 8, ptr %10) #13
  %140 = load i32, ptr %5, align 4
  ret i32 %140

141:                                              ; preds = %57
  unreachable
}