; Function Attrs: inlinehint nounwind uwtable
define internal fastcc range(i32 0, 21) i32 @parseString(ptr noundef nonnull captures(none) %0, ptr noundef %1, i8 noundef signext range(i8 34, 40) %2, i32 noundef range(i32 4, 6) %3) unnamed_addr #15 {
  %5 = getelementptr inbounds nuw i8, ptr %1, i64 40
  %6 = load ptr, ptr %5, align 8, !tbaa !45
  %7 = getelementptr inbounds nuw i8, ptr %1, i64 56
  %8 = load i64, ptr %7, align 8, !tbaa !47
  %9 = getelementptr inbounds nuw i8, ptr %6, i64 %8
  %10 = getelementptr inbounds nuw i8, ptr %1, i64 48
  %11 = load i64, ptr %10, align 8, !tbaa !46
  %12 = getelementptr inbounds nuw i8, ptr %6, i64 %11
  %13 = ptrtoint ptr %12 to i64
  %14 = zext nneg i8 %2 to i32
  br label %15

15:                                               ; preds = %20, %4
  %.044 = phi ptr [ %9, %4 ], [ %spec.select, %20 ]
  %16 = ptrtoint ptr %.044 to i64
  %17 = sub i64 %13, %16
  %18 = tail call ptr @memchr(ptr noundef %.044, i32 noundef %14, i64 noundef %17) #21
  %.not = icmp ne ptr %18, null
  %19 = icmp ugt ptr %18, %9
  %or.cond = select i1 %.not, i1 %19, i1 false
  br i1 %or.cond, label %20, label %.thread

20:                                               ; preds = %15
  %21 = getelementptr inbounds i8, ptr %18, i64 -1
  %22 = load i8, ptr %21, align 1, !tbaa !3
  %23 = icmp eq i8 %22, 92
  %spec.select.idx = zext i1 %23 to i64
  %spec.select = getelementptr inbounds nuw i8, ptr %18, i64 %spec.select.idx
  br i1 %23, label %15, label %.thread

.thread:                                          ; preds = %15, %20
  %.159 = phi ptr [ %spec.select, %20 ], [ %18, %15 ]
  %.not48 = icmp eq ptr %.159, null
  %.not49 = icmp ult ptr %.159, %9
  %or.cond52 = select i1 %.not48, i1 true, i1 %.not49
  br i1 %or.cond52, label %28, label %.thread60

.thread60:                                        ; preds = %.thread
  %24 = ptrtoint ptr %.159 to i64
  %25 = ptrtoint ptr %9 to i64
  %26 = sub i64 %24, %25
  %27 = tail call i32 @cli_textbuffer_append_normalize(ptr noundef %1, ptr noundef %9, i64 noundef %26) #20
  br label %31

28:                                               ; preds = %.thread
  %29 = sub i64 %11, %8
  %30 = tail call i32 @cli_textbuffer_append_normalize(ptr noundef %1, ptr noundef %9, i64 noundef %29) #20
  br i1 %.not48, label %62, label %31

31:                                               ; preds = %.thread60, %28
  %.04362 = phi i64 [ %26, %.thread60 ], [ %29, %28 ]
  %32 = add i64 %.04362, 1
  %33 = load i64, ptr %7, align 8, !tbaa !47
  %34 = add i64 %32, %33
  store i64 %34, ptr %7, align 8, !tbaa !47
  %35 = getelementptr inbounds nuw i8, ptr %1, i64 8
  %36 = load i64, ptr %35, align 8, !tbaa !52
  %37 = add i64 %36, 1
  %38 = getelementptr inbounds nuw i8, ptr %1, i64 16
  %39 = load i64, ptr %38, align 8, !tbaa !50
  %40 = icmp ugt i64 %37, %39
  %.pre.i = load ptr, ptr %1, align 8, !tbaa !51
  br i1 %40, label %41, label %45

41:                                               ; preds = %31
  %42 = add i64 %39, 4096
  %..i.i = tail call i64 @llvm.umax.i64(i64 %37, i64 %42)
  %43 = and i64 %..i.i, 4294967295
  %44 = tail call ptr @cli_max_realloc(ptr noundef %.pre.i, i64 noundef %43) #20
  %.not.i.i = icmp eq ptr %44, null
  br i1 %.not.i.i, label %textbuffer_putc.exit, label %.thread.i.i

.thread.i.i:                                      ; preds = %41
  store i64 %43, ptr %38, align 8, !tbaa !50
  store ptr %44, ptr %1, align 8, !tbaa !51
  %.pre5.i = load i64, ptr %35, align 8, !tbaa !52
  %.pre6.i = add i64 %.pre5.i, 1
  br label %45

45:                                               ; preds = %.thread.i.i, %31
  %.pre-phi.i = phi i64 [ %.pre6.i, %.thread.i.i ], [ %37, %31 ]
  %46 = phi i64 [ %.pre5.i, %.thread.i.i ], [ %36, %31 ]
  %47 = phi ptr [ %44, %.thread.i.i ], [ %.pre.i, %31 ]
  store i64 %.pre-phi.i, ptr %35, align 8, !tbaa !52
  %48 = getelementptr inbounds nuw i8, ptr %47, i64 %46
  store i8 0, ptr %48, align 1, !tbaa !3
  br label %textbuffer_putc.exit

textbuffer_putc.exit:                             ; preds = %41, %45
  %49 = load ptr, ptr %1, align 8, !tbaa !43
  %50 = load i64, ptr %35, align 8, !tbaa !59
  %51 = tail call ptr @cli_max_realloc(ptr noundef %49, i64 noundef %50) #20
  %.not.i = icmp eq ptr %51, null
  br i1 %.not.i, label %52, label %textbuffer_done.exit

52:                                               ; preds = %textbuffer_putc.exit
  %53 = load ptr, ptr %1, align 8, !tbaa !43
  br label %textbuffer_done.exit

textbuffer_done.exit:                             ; preds = %textbuffer_putc.exit, %52
  %.0.i54 = phi ptr [ %51, %textbuffer_putc.exit ], [ %53, %52 ]
  %54 = getelementptr inbounds nuw i8, ptr %1, i64 24
  store ptr %.0.i54, ptr %54, align 8, !tbaa !57
  %55 = load i64, ptr %35, align 8, !tbaa !59
  %56 = add i64 %55, -1
  %57 = getelementptr inbounds nuw i8, ptr %1, i64 32
  store i64 %56, ptr %57, align 8, !tbaa !58
  tail call void @llvm.memset.p0.i64(ptr noundef nonnull align 8 dereferenceable(24) %1, i8 0, i64 24, i1 false)
  %.not50 = icmp eq ptr %.0.i54, null
  %spec.select63 = select i1 %.not50, i32 1, i32 2
  %spec.select64 = select i1 %.not50, ptr @.str.42, ptr %.0.i54
  %58 = getelementptr inbounds nuw i8, ptr %0, i64 12
  store i32 %spec.select63, ptr %58, align 4, !tbaa !27
  store ptr %spec.select64, ptr %0, align 8, !tbaa !3
  %59 = getelementptr inbounds nuw i8, ptr %1, i64 72
  store i32 0, ptr %59, align 8, !tbaa !15
  %60 = load ptr, ptr %0, align 8, !tbaa !3
  %.not51 = icmp eq ptr %60, null
  br i1 %.not51, label %61, label %66

61:                                               ; preds = %textbuffer_done.exit
  tail call void @__assert_fail(ptr noundef nonnull @.str.141, ptr noundef nonnull @.str.40, i32 noundef 1596, ptr noundef nonnull @__PRETTY_FUNCTION__.parseString) #22
  unreachable

62:                                               ; preds = %28
  %63 = load i64, ptr %7, align 8, !tbaa !47
  %64 = add i64 %63, %29
  store i64 %64, ptr %7, align 8, !tbaa !47
  %65 = getelementptr inbounds nuw i8, ptr %1, i64 72
  store i32 %3, ptr %65, align 8, !tbaa !15
  br label %66

66:                                               ; preds = %textbuffer_done.exit, %62
  %.0 = phi i32 [ 0, %62 ], [ 20, %textbuffer_done.exit ]
  ret i32 %.0
}